; Function Attrs: mustprogress uwtable
define internal noundef zeroext i1 @"_ZNSt17_Function_handlerIFbvEZN6google8protobuf2io7Printer9ValueImplILb1EE18ToStringOrCallbackIZNKS2_8compiler3cpp12_GLOBAL__N_115SingularMessage33GenerateInlineAccessorDefinitionsEPS4_E3$_0vEESt7variantIJNSt7__cxx1112basic_stringIcSt11char_traitsIcESaIcEEESt8functionIS0_EEEOT_NS6_5Rank2EEUlvE_E9_M_invokeERKSt9_Any_data"(ptr nocapture noundef nonnull readonly align 8 dereferenceable(16) %__functor) #3 align 2 personality ptr @__gxx_personality_v0 {
entry:
  %__functor.val = load ptr, ptr %__functor, align 8
  %0 = getelementptr inbounds i8, ptr %__functor.val, i64 16
  %1 = load i8, ptr %0, align 8
  %2 = and i8 %1, 1
  %tobool.not.i.i.i = icmp eq i8 %2, 0
  br i1 %tobool.not.i.i.i, label %if.end.i.i.i, label %"_ZSt10__invoke_rIbRZN6google8protobuf2io7Printer9ValueImplILb1EE18ToStringOrCallbackIZNKS1_8compiler3cpp12_GLOBAL__N_115SingularMessage33GenerateInlineAccessorDefinitionsEPS3_E3$_0vEESt7variantIJNSt7__cxx1112basic_stringIcSt11char_traitsIcESaIcEEESt8functionIFbvEEEEOT_NS5_5Rank2EEUlvE_JEENSt9enable_ifIX16is_invocable_r_vISO_T0_DpT1_EESO_E4typeEOSU_DpOSV_.exit"

if.end.i.i.i:                                     ; preds = %entry
  store i8 1, ptr %0, align 8
  %this.val.i.i.i = load ptr, ptr %__functor.val, align 8
  %3 = getelementptr i8, ptr %this.val.i.i.i, i64 105
  %this.val.val.i.i.i = load i8, ptr %3, align 1
  %4 = and i8 %this.val.val.i.i.i, 1
  %tobool.not.i.i.i.i = icmp eq i8 %4, 0
  br i1 %tobool.not.i.i.i.i, label %"_ZZNK6google8protobuf8compiler3cpp12_GLOBAL__N_115SingularMessage33GenerateInlineAccessorDefinitionsEPNS0_2io7PrinterEENK3$_0clEv.exit.i.i.i", label %if.end.i.i.i.i

if.end.i.i.i.i:                                   ; preds = %if.end.i.i.i
  %5 = getelementptr inbounds i8, ptr %__functor.val, i64 8
  %this.val1.i.i.i = load ptr, ptr %5, align 8
  %6 = load ptr, ptr %this.val1.i.i.i, align 8
  tail call void @_ZN6google8protobuf2io7Printer4EmitEN4absl12lts_202308024SpanIKNS2_3SubEEESt17basic_string_viewIcSt11char_traitsIcEENS2_14SourceLocationE(ptr noundef nonnull align 8 dereferenceable(256) %6, ptr null, i64 0, i64 156, ptr nonnull @.str.48)
  br label %"_ZZNK6google8protobuf8compiler3cpp12_GLOBAL__N_115SingularMessage33GenerateInlineAccessorDefinitionsEPNS0_2io7PrinterEENK3$_0clEv.exit.i.i.i"

"_ZZNK6google8protobuf8compiler3cpp12_GLOBAL__N_115SingularMessage33GenerateInlineAccessorDefinitionsEPNS0_2io7PrinterEENK3$_0clEv.exit.i.i.i": ; preds = %if.end.i.i.i.i, %if.end.i.i.i
  store i8 0, ptr %0, align 8
  br label %"_ZSt10__invoke_rIbRZN6google8protobuf2io7Printer9ValueImplILb1EE18ToStringOrCallbackIZNKS1_8compiler3cpp12_GLOBAL__N_115SingularMessage33GenerateInlineAccessorDefinitionsEPS3_E3$_0vEESt7variantIJNSt7__cxx1112basic_stringIcSt11char_traitsIcESaIcEEESt8functionIFbvEEEEOT_NS5_5Rank2EEUlvE_JEENSt9enable_ifIX16is_invocable_r_vISO_T0_DpT1_EESO_E4typeEOSU_DpOSV_.exit"

"_ZSt10__invoke_rIbRZN6google8protobuf2io7Printer9ValueImplILb1EE18ToStringOrCallbackIZNKS1_8compiler3cpp12_GLOBAL__N_115SingularMessage33GenerateInlineAccessorDefinitionsEPS3_E3$_0vEESt7variantIJNSt7__cxx1112basic_stringIcSt11char_traitsIcESaIcEEESt8functionIFbvEEEEOT_NS5_5Rank2EEUlvE_JEENSt9enable_ifIX16is_invocable_r_vISO_T0_DpT1_EESO_E4typeEOSU_DpOSV_.exit": ; preds = %entry, %"_ZZNK6google8protobuf8compiler3cpp12_GLOBAL__N_115SingularMessage33GenerateInlineAccessorDefinitionsEPNS0_2io7PrinterEENK3$_0clEv.exit.i.i.i"
  ret i1 %tobool.not.i.i.i
}